   1               		.file	"i2c.c"
   2               	__SREG__ = 0x3f
   3               	__SP_H__ = 0x3e
   4               	__SP_L__ = 0x3d
   5               	__CCP__  = 0x34
   6               	__tmp_reg__ = 0
   7               	__zero_reg__ = 1
  15               	.Ltext0:
  16               	.global	I2C_Struct_Init
  18               	I2C_Struct_Init:
  19               	.LFB8:
  20               	.LM1:
  21               	/* prologue: function */
  22               	/* frame size = 0 */
  23               	.LM2:
  24 0000 1092 0000 		sts I2C,__zero_reg__
  25               	.LM3:
  26 0004 1092 0000 		sts I2C+1,__zero_reg__
  27               	.LM4:
  28 0008 1092 0000 		sts I2C+2,__zero_reg__
  29               	.LM5:
  30 000c 1092 0000 		sts (I2C+3)+1,__zero_reg__
  31 0010 1092 0000 		sts I2C+3,__zero_reg__
  32               	/* epilogue start */
  33               	.LM6:
  34 0014 0895      		ret
  35               	.LFE8:
  37               	.global	I2C_Half_Bit_Delay
  39               	I2C_Half_Bit_Delay:
  40               	.LFB9:
  41               	.LM7:
  42               	/* prologue: function */
  43               	/* frame size = 0 */
  44               	.LBB300:
  45               	.LBB301:
  46               	.LBB302:
  47               	.LBB303:
  48               	.LM8:
  49 0016 80E5      		ldi r24,lo8(80)
  50               	.LVL0:
  51               	/* #APP */
  52               	 ;  83 "c:/winavr-20100110/lib/gcc/../../avr/include/util/delay_basic.h" 1
  53 0018 8A95      		1: dec r24
  54 001a 01F4      		brne 1b
  55               	 ;  0 "" 2
  56               	/* epilogue start */
  57               	/* #NOAPP */
  58               	.LBE303:
  59               	.LBE302:
  60               	.LBE301:
  61               	.LBE300:
  62               	.LM9:
  63 001c 0895      		ret
  64               	.LFE9:
  66               	.global	I2C_Bit_Delay
  68               	I2C_Bit_Delay:
  69               	.LFB10:
  70               	.LM10:
  71               	/* prologue: function */
  72               	/* frame size = 0 */
  73               	.LBB304:
  74               	.LBB305:
  75               	.LBB306:
  76               	.LBB307:
  77               	.LM11:
  78 001e 80EA      		ldi r24,lo8(-96)
  79               	.LVL1:
  80               	/* #APP */
  81               	 ;  83 "c:/winavr-20100110/lib/gcc/../../avr/include/util/delay_basic.h" 1
  82 0020 8A95      		1: dec r24
  83 0022 01F4      		brne 1b
  84               	 ;  0 "" 2
  85               	/* epilogue start */
  86               	/* #NOAPP */
  87               	.LBE307:
  88               	.LBE306:
  89               	.LBE305:
  90               	.LBE304:
  91               	.LM12:
  92 0024 0895      		ret
  93               	.LFE10:
  95               	.global	I2C_Guard_Delay
  97               	I2C_Guard_Delay:
  98               	.LFB11:
  99               	.LM13:
 100               	/* prologue: function */
 101               	/* frame size = 0 */
 102               	.LBB308:
 103               	.LBB309:
 104               	.LBB310:
 105               	.LBB311:
 106               	.LM14:
 107 0026 88E0      		ldi r24,lo8(8)
 108               	.LVL2:
 109               	/* #APP */
 110               	 ;  83 "c:/winavr-20100110/lib/gcc/../../avr/include/util/delay_basic.h" 1
 111 0028 8A95      		1: dec r24
 112 002a 01F4      		brne 1b
 113               	 ;  0 "" 2
 114               	/* epilogue start */
 115               	/* #NOAPP */
 116               	.LBE311:
 117               	.LBE310:
 118               	.LBE309:
 119               	.LBE308:
 120               	.LM15:
 121 002c 0895      		ret
 122               	.LFE11:
 124               	.global	I2C_SCL_Set_DD
 126               	I2C_SCL_Set_DD:
 127               	.LFB12:
 128               	.LM16:
 129               	.LVL3:
 130               	/* prologue: function */
 131               	/* frame size = 0 */
 132               	.LM17:
 133 002e 8130      		cpi r24,lo8(1)
 134 0030 01F4      		brne .L10
 135               	.LM18:
 136 0032 3D9A      		sbi 39-32,5
 137 0034 0895      		ret
 138               	.L10:
 139               	.LM19:
 140 0036 3D98      		cbi 39-32,5
 141 0038 0895      		ret
 142               	.LFE12:
 144               	.global	I2C_SCL_Set_Output_LL
 146               	I2C_SCL_Set_Output_LL:
 147               	.LFB13:
 148               	.LM20:
 149               	.LVL4:
 150               	/* prologue: function */
 151               	/* frame size = 0 */
 152               	.LM21:
 153 003a 8130      		cpi r24,lo8(1)
 154 003c 01F4      		brne .L14
 155               	.LM22:
 156 003e 459A      		sbi 40-32,5
 157 0040 0895      		ret
 158               	.L14:
 159               	.LM23:
 160 0042 4598      		cbi 40-32,5
 161 0044 0895      		ret
 162               	.LFE13:
 164               	.global	I2C_SCL_Set_Output
 166               	I2C_SCL_Set_Output:
 167               	.LFB14:
 168               	.LM24:
 169               	.LVL5:
 170               	/* prologue: function */
 171               	/* frame size = 0 */
 172               	.LM25:
 173 0046 8130      		cpi r24,lo8(1)
 174 0048 01F4      		brne .L18
 175               	.LBB312:
 176               	.LBB313:
 177               	.LM26:
 178 004a 459A      		sbi 40-32,5
 179               	.LBE313:
 180               	.LBE312:
 181               	.LBB314:
 182               	.LBB315:
 183               	.LM27:
 184 004c 3D98      		cbi 39-32,5
 185 004e 0895      		ret
 186               	.L18:
 187               	.LBE315:
 188               	.LBE314:
 189               	.LBB316:
 190               	.LBB317:
 191               	.LM28:
 192 0050 4598      		cbi 40-32,5
 193               	.LBE317:
 194               	.LBE316:
 195               	.LBB318:
 196               	.LBB319:
 197               	.LM29:
 198 0052 3D9A      		sbi 39-32,5
 199 0054 0895      		ret
 200               	.LBE319:
 201               	.LBE318:
 202               	.LFE14:
 204               	.global	I2C_SCL_Get_State
 206               	I2C_SCL_Get_State:
 207               	.LFB15:
 208               	.LM30:
 209               	/* prologue: function */
 210               	/* frame size = 0 */
 211               	.LM31:
 212 0056 86B1      		in r24,38-32
 213 0058 90E0      		ldi r25,lo8(0)
 214 005a 25E0      		ldi r18,5
 215 005c 9695      	1:	lsr r25
 216 005e 8795      		ror r24
 217 0060 2A95      		dec r18
 218 0062 01F4      		brne 1b
 219               	.LM32:
 220 0064 8170      		andi r24,lo8(1)
 221               	/* epilogue start */
 222 0066 0895      		ret
 223               	.LFE15:
 225               	.global	I2C_SDA_Set_DD
 227               	I2C_SDA_Set_DD:
 228               	.LFB16:
 229               	.LM33:
 230               	.LVL6:
 231               	/* prologue: function */
 232               	/* frame size = 0 */
 233               	.LM34:
 234 0068 8130      		cpi r24,lo8(1)
 235 006a 01F4      		brne .L24
 236               	.LM35:
 237 006c 3C9A      		sbi 39-32,4
 238 006e 0895      		ret
 239               	.L24:
 240               	.LM36:
 241 0070 3C98      		cbi 39-32,4
 242 0072 0895      		ret
 243               	.LFE16:
 245               	.global	I2C_SDA_Set_Output_LL
 247               	I2C_SDA_Set_Output_LL:
 248               	.LFB17:
 249               	.LM37:
 250               	.LVL7:
 251               	/* prologue: function */
 252               	/* frame size = 0 */
 253               	.LM38:
 254 0074 8130      		cpi r24,lo8(1)
 255 0076 01F4      		brne .L28
 256               	.LM39:
 257 0078 449A      		sbi 40-32,4
 258 007a 0895      		ret
 259               	.L28:
 260               	.LM40:
 261 007c 4498      		cbi 40-32,4
 262 007e 0895      		ret
 263               	.LFE17:
 265               	.global	I2C_SDA_Set_Output
 267               	I2C_SDA_Set_Output:
 268               	.LFB18:
 269               	.LM41:
 270               	.LVL8:
 271               	/* prologue: function */
 272               	/* frame size = 0 */
 273               	.LM42:
 274 0080 8130      		cpi r24,lo8(1)
 275 0082 01F4      		brne .L32
 276               	.LBB320:
 277               	.LBB321:
 278               	.LM43:
 279 0084 449A      		sbi 40-32,4
 280               	.LBE321:
 281               	.LBE320:
 282               	.LBB322:
 283               	.LBB323:
 284               	.LM44:
 285 0086 3C98      		cbi 39-32,4
 286 0088 0895      		ret
 287               	.L32:
 288               	.LBE323:
 289               	.LBE322:
 290               	.LBB324:
 291               	.LBB325:
 292               	.LM45:
 293 008a 4498      		cbi 40-32,4
 294               	.LBE325:
 295               	.LBE324:
 296               	.LBB326:
 297               	.LBB327:
 298               	.LM46:
 299 008c 3C9A      		sbi 39-32,4
 300 008e 0895      		ret
 301               	.LBE327:
 302               	.LBE326:
 303               	.LFE18:
 305               	.global	I2C_SDA_Get_State
 307               	I2C_SDA_Get_State:
 308               	.LFB19:
 309               	.LM47:
 310               	/* prologue: function */
 311               	/* frame size = 0 */
 312               	.LM48:
 313 0090 86B1      		in r24,38-32
 314 0092 90E0      		ldi r25,lo8(0)
 315 0094 34E0      		ldi r19,4
 316 0096 9695      	1:	lsr r25
 317 0098 8795      		ror r24
 318 009a 3A95      		dec r19
 319 009c 01F4      		brne 1b
 320               	.LM49:
 321 009e 8170      		andi r24,lo8(1)
 322               	/* epilogue start */
 323 00a0 0895      		ret
 324               	.LFE19:
 326               	.global	I2C_SCL_Reset_State
 328               	I2C_SCL_Reset_State:
 329               	.LFB20:
 330               	.LM50:
 331               	/* prologue: function */
 332               	/* frame size = 0 */
 333               	.LBB328:
 334               	.LBB329:
 335               	.LM51:
 336 00a2 3D98      		cbi 39-32,5
 337               	.LBE329:
 338               	.LBE328:
 339               	.LM52:
 340 00a4 80E0      		ldi r24,lo8(0)
 341 00a6 0E94 0000 		call I2C_SCL_Set_Output
 342               	/* epilogue start */
 343               	.LM53:
 344 00aa 0895      		ret
 345               	.LFE20:
 347               	.global	I2C_SDA_Reset_State
 349               	I2C_SDA_Reset_State:
 350               	.LFB21:
 351               	.LM54:
 352               	/* prologue: function */
 353               	/* frame size = 0 */
 354               	.LBB330:
 355               	.LBB331:
 356               	.LM55:
 357 00ac 3C98      		cbi 39-32,4
 358               	.LBE331:
 359               	.LBE330:
 360               	.LM56:
 361 00ae 80E0      		ldi r24,lo8(0)
 362 00b0 0E94 0000 		call I2C_SDA_Set_Output
 363               	/* epilogue start */
 364               	.LM57:
 365 00b4 0895      		ret
 366               	.LFE21:
 368               	.global	I2C_GPIO_Init
 370               	I2C_GPIO_Init:
 371               	.LFB22:
 372               	.LM58:
 373               	/* prologue: function */
 374               	/* frame size = 0 */
 375               	.LBB332:
 376               	.LBB333:
 377               	.LM59:
 378 00b6 3D9A      		sbi 39-32,5
 379               	.LBE333:
 380               	.LBE332:
 381               	.LBB334:
 382               	.LBB335:
 383               	.LM60:
 384 00b8 3C98      		cbi 39-32,4
 385               	.LBE335:
 386               	.LBE334:
 387               	.LM61:
 388 00ba 81E0      		ldi r24,lo8(1)
 389 00bc 0E94 0000 		call I2C_SCL_Set_Output
 390               	.LM62:
 391 00c0 81E0      		ldi r24,lo8(1)
 392 00c2 0E94 0000 		call I2C_SDA_Set_Output
 393               	/* epilogue start */
 394               	.LM63:
 395 00c6 0895      		ret
 396               	.LFE22:
 398               	.global	I2C_Start
 400               	I2C_Start:
 401               	.LFB23:
 402               	.LM64:
 403 00c8 1F93      		push r17
 404               	/* prologue: function */
 405               	/* frame size = 0 */
 406               	.LM65:
 407 00ca 81E0      		ldi r24,lo8(1)
 408 00cc 0E94 0000 		call I2C_SCL_Set_Output
 409               	.LM66:
 410 00d0 81E0      		ldi r24,lo8(1)
 411 00d2 0E94 0000 		call I2C_SDA_Set_Output
 412               	.LBB336:
 413               	.LBB337:
 414               	.LBB338:
 415               	.LBB339:
 416               	.LBB340:
 417               	.LBB341:
 418               	.LM67:
 419 00d6 10E5      		ldi r17,lo8(80)
 420 00d8 812F      		mov r24,r17
 421               	.LVL9:
 422               	/* #APP */
 423               	 ;  83 "c:/winavr-20100110/lib/gcc/../../avr/include/util/delay_basic.h" 1
 424 00da 8A95      		1: dec r24
 425 00dc 01F4      		brne 1b
 426               	 ;  0 "" 2
 427               	/* #NOAPP */
 428               	.LBE341:
 429               	.LBE340:
 430               	.LBE339:
 431               	.LBE338:
 432               	.LBE337:
 433               	.LBE336:
 434               	.LM68:
 435 00de 80E0      		ldi r24,lo8(0)
 436               	.LVL10:
 437 00e0 0E94 0000 		call I2C_SDA_Set_Output
 438               	.LBB342:
 439               	.LBB343:
 440               	.LBB344:
 441               	.LBB345:
 442               	.LBB346:
 443               	.LBB347:
 444               	.LM69:
 445 00e4 812F      		mov r24,r17
 446               	.LVL11:
 447               	/* #APP */
 448               	 ;  83 "c:/winavr-20100110/lib/gcc/../../avr/include/util/delay_basic.h" 1
 449 00e6 8A95      		1: dec r24
 450 00e8 01F4      		brne 1b
 451               	 ;  0 "" 2
 452               	/* #NOAPP */
 453               	.LBE347:
 454               	.LBE346:
 455               	.LBE345:
 456               	.LBE344:
 457               	.LBE343:
 458               	.LBE342:
 459               	.LM70:
 460 00ea 80E0      		ldi r24,lo8(0)
 461               	.LVL12:
 462 00ec 0E94 0000 		call I2C_SCL_Set_Output
 463               	.LBB348:
 464               	.LBB349:
 465               	.LBB350:
 466               	.LBB351:
 467               	.LBB352:
 468               	.LBB353:
 469               	.LM71:
 470               	/* #APP */
 471               	 ;  83 "c:/winavr-20100110/lib/gcc/../../avr/include/util/delay_basic.h" 1
 472 00f0 1A95      		1: dec r17
 473 00f2 01F4      		brne 1b
 474               	 ;  0 "" 2
 475               	.LVL13:
 476               	/* epilogue start */
 477               	/* #NOAPP */
 478               	.LBE353:
 479               	.LBE352:
 480               	.LBE351:
 481               	.LBE350:
 482               	.LBE349:
 483               	.LBE348:
 484               	.LM72:
 485 00f4 1F91      		pop r17
 486               	.LVL14:
 487 00f6 0895      		ret
 488               	.LFE23:
 490               	.global	I2C_Stop
 492               	I2C_Stop:
 493               	.LFB24:
 494               	.LM73:
 495 00f8 1F93      		push r17
 496               	/* prologue: function */
 497               	/* frame size = 0 */
 498               	.LM74:
 499 00fa 80E0      		ldi r24,lo8(0)
 500 00fc 0E94 0000 		call I2C_SCL_Set_Output
 501               	.LM75:
 502 0100 80E0      		ldi r24,lo8(0)
 503 0102 0E94 0000 		call I2C_SDA_Set_Output
 504               	.LBB354:
 505               	.LBB355:
 506               	.LBB356:
 507               	.LBB357:
 508               	.LBB358:
 509               	.LBB359:
 510               	.LM76:
 511 0106 10E5      		ldi r17,lo8(80)
 512 0108 812F      		mov r24,r17
 513               	.LVL15:
 514               	/* #APP */
 515               	 ;  83 "c:/winavr-20100110/lib/gcc/../../avr/include/util/delay_basic.h" 1
 516 010a 8A95      		1: dec r24
 517 010c 01F4      		brne 1b
 518               	 ;  0 "" 2
 519               	/* #NOAPP */
 520               	.LBE359:
 521               	.LBE358:
 522               	.LBE357:
 523               	.LBE356:
 524               	.LBE355:
 525               	.LBE354:
 526               	.LM77:
 527 010e 81E0      		ldi r24,lo8(1)
 528               	.LVL16:
 529 0110 0E94 0000 		call I2C_SCL_Set_Output
 530               	.LBB360:
 531               	.LBB361:
 532               	.LBB362:
 533               	.LBB363:
 534               	.LBB364:
 535               	.LBB365:
 536               	.LM78:
 537 0114 812F      		mov r24,r17
 538               	.LVL17:
 539               	/* #APP */
 540               	 ;  83 "c:/winavr-20100110/lib/gcc/../../avr/include/util/delay_basic.h" 1
 541 0116 8A95      		1: dec r24
 542 0118 01F4      		brne 1b
 543               	 ;  0 "" 2
 544               	/* #NOAPP */
 545               	.LBE365:
 546               	.LBE364:
 547               	.LBE363:
 548               	.LBE362:
 549               	.LBE361:
 550               	.LBE360:
 551               	.LM79:
 552 011a 81E0      		ldi r24,lo8(1)
 553               	.LVL18:
 554 011c 0E94 0000 		call I2C_SDA_Set_Output
 555               	.LBB366:
 556               	.LBB367:
 557               	.LBB368:
 558               	.LBB369:
 559               	.LBB370:
 560               	.LBB371:
 561               	.LM80:
 562               	/* #APP */
 563               	 ;  83 "c:/winavr-20100110/lib/gcc/../../avr/include/util/delay_basic.h" 1
 564 0120 1A95      		1: dec r17
 565 0122 01F4      		brne 1b
 566               	 ;  0 "" 2
 567               	.LVL19:
 568               	/* epilogue start */
 569               	/* #NOAPP */
 570               	.LBE371:
 571               	.LBE370:
 572               	.LBE369:
 573               	.LBE368:
 574               	.LBE367:
 575               	.LBE366:
 576               	.LM81:
 577 0124 1F91      		pop r17
 578               	.LVL20:
 579 0126 0895      		ret
 580               	.LFE24:
 582               	.global	I2C_Data_Send
 584               	I2C_Data_Send:
 585               	.LFB25:
 586               	.LM82:
 587               	.LVL21:
 588 0128 EF92      		push r14
 589 012a FF92      		push r15
 590 012c 0F93      		push r16
 591 012e 1F93      		push r17
 592               	/* prologue: function */
 593               	/* frame size = 0 */
 594 0130 082F      		mov r16,r24
 595               	.LM83:
 596 0132 10E0      		ldi r17,lo8(0)
 597               	.LVL22:
 598               	.LBB372:
 599               	.LBB373:
 600               	.LBB374:
 601               	.LBB375:
 602               	.LBB376:
 603               	.LBB377:
 604               	.LBB378:
 605               	.LM84:
 606 0134 50E5      		ldi r21,lo8(80)
 607 0136 F52E      		mov r15,r21
 608               	.LBE378:
 609               	.LBE377:
 610               	.LBE376:
 611               	.LBE375:
 612               	.LBE374:
 613               	.LBE373:
 614               	.LBB384:
 615               	.LBB385:
 616               	.LBB386:
 617               	.LBB387:
 618               	.LBB388:
 619               	.LBB389:
 620 0138 48E0      		ldi r20,lo8(8)
 621 013a E42E      		mov r14,r20
 622               	.LVL23:
 623               	.L51:
 624               	.LBE389:
 625               	.LBE388:
 626               	.LBE387:
 627               	.LBE386:
 628               	.LBE385:
 629               	.LBE384:
 630               	.LM85:
 631 013c 07FF      		sbrs r16,7
 632 013e 00C0      		rjmp .L48
 633               	.LM86:
 634 0140 81E0      		ldi r24,lo8(1)
 635               	.LVL24:
 636 0142 00C0      		rjmp .L53
 637               	.LVL25:
 638               	.L48:
 639               	.LM87:
 640 0144 80E0      		ldi r24,lo8(0)
 641               	.LVL26:
 642               	.L53:
 643 0146 0E94 0000 		call I2C_SDA_Set_Output
 644               	.LBB395:
 645               	.LBB383:
 646               	.LBB382:
 647               	.LBB381:
 648               	.LBB380:
 649               	.LBB379:
 650               	.LM88:
 651 014a 8F2D      		mov r24,r15
 652               	.LVL27:
 653               	/* #APP */
 654               	 ;  83 "c:/winavr-20100110/lib/gcc/../../avr/include/util/delay_basic.h" 1
 655 014c 8A95      		1: dec r24
 656 014e 01F4      		brne 1b
 657               	 ;  0 "" 2
 658               	/* #NOAPP */
 659               	.LBE379:
 660               	.LBE380:
 661               	.LBE381:
 662               	.LBE382:
 663               	.LBE383:
 664               	.LBE395:
 665               	.LM89:
 666 0150 81E0      		ldi r24,lo8(1)
 667               	.LVL28:
 668 0152 0E94 0000 		call I2C_SCL_Set_Output
 669               	.LBB396:
 670               	.LBB397:
 671               	.LBB398:
 672               	.LBB399:
 673               	.LBB400:
 674               	.LBB401:
 675               	.LM90:
 676 0156 8F2D      		mov r24,r15
 677               	.LVL29:
 678               	/* #APP */
 679               	 ;  83 "c:/winavr-20100110/lib/gcc/../../avr/include/util/delay_basic.h" 1
 680 0158 8A95      		1: dec r24
 681 015a 01F4      		brne 1b
 682               	 ;  0 "" 2
 683               	/* #NOAPP */
 684               	.LBE401:
 685               	.LBE400:
 686               	.LBE399:
 687               	.LBE398:
 688               	.LBE397:
 689               	.LBE396:
 690               	.LM91:
 691 015c 80E0      		ldi r24,lo8(0)
 692               	.LVL30:
 693 015e 0E94 0000 		call I2C_SCL_Set_Output
 694               	.LBB402:
 695               	.LBB394:
 696               	.LBB393:
 697               	.LBB392:
 698               	.LBB391:
 699               	.LBB390:
 700               	.LM92:
 701 0162 8E2D      		mov r24,r14
 702               	.LVL31:
 703               	/* #APP */
 704               	 ;  83 "c:/winavr-20100110/lib/gcc/../../avr/include/util/delay_basic.h" 1
 705 0164 8A95      		1: dec r24
 706 0166 01F4      		brne 1b
 707               	 ;  0 "" 2
 708               	/* #NOAPP */
 709               	.LBE390:
 710               	.LBE391:
 711               	.LBE392:
 712               	.LBE393:
 713               	.LBE394:
 714               	.LBE402:
 715               	.LM93:
 716 0168 1F5F      		subi r17,lo8(-(1))
 717 016a 1830      		cpi r17,lo8(8)
 718 016c 01F0      		breq .L52
 719               	.LM94:
 720 016e 000F      		lsl r16
 721 0170 00C0      		rjmp .L51
 722               	.L52:
 723               	/* epilogue start */
 724               	.LBE372:
 725               	.LM95:
 726 0172 1F91      		pop r17
 727               	.LVL32:
 728 0174 0F91      		pop r16
 729               	.LVL33:
 730 0176 FF90      		pop r15
 731 0178 EF90      		pop r14
 732 017a 0895      		ret
 733               	.LFE25:
 735               	.global	I2C_Data_Receive
 737               	I2C_Data_Receive:
 738               	.LFB26:
 739               	.LM96:
 740 017c FF92      		push r15
 741 017e 0F93      		push r16
 742 0180 1F93      		push r17
 743               	/* prologue: function */
 744               	/* frame size = 0 */
 745               	.LM97:
 746 0182 81E0      		ldi r24,lo8(1)
 747 0184 0E94 0000 		call I2C_SDA_Set_Output
 748 0188 10E0      		ldi r17,lo8(0)
 749               	.LVL34:
 750 018a 00E0      		ldi r16,lo8(0)
 751               	.LVL35:
 752               	.LBB403:
 753               	.LBB404:
 754               	.LBB405:
 755               	.LBB406:
 756               	.LBB407:
 757               	.LBB408:
 758               	.LBB409:
 759               	.LM98:
 760 018c 60E5      		ldi r22,lo8(80)
 761 018e F62E      		mov r15,r22
 762               	.L56:
 763               	.LBE409:
 764               	.LBE408:
 765               	.LBE407:
 766               	.LBE406:
 767               	.LBE405:
 768               	.LBE404:
 769               	.LM99:
 770 0190 110F      		lsl r17
 771               	.LBB415:
 772               	.LBB414:
 773               	.LBB413:
 774               	.LBB412:
 775               	.LBB411:
 776               	.LBB410:
 777               	.LM100:
 778 0192 8F2D      		mov r24,r15
 779               	.LVL36:
 780               	/* #APP */
 781               	 ;  83 "c:/winavr-20100110/lib/gcc/../../avr/include/util/delay_basic.h" 1
 782 0194 8A95      		1: dec r24
 783 0196 01F4      		brne 1b
 784               	 ;  0 "" 2
 785               	/* #NOAPP */
 786               	.LBE410:
 787               	.LBE411:
 788               	.LBE412:
 789               	.LBE413:
 790               	.LBE414:
 791               	.LBE415:
 792               	.LM101:
 793 0198 81E0      		ldi r24,lo8(1)
 794               	.LVL37:
 795 019a 0E94 0000 		call I2C_SCL_Set_Output
 796               	.LBB416:
 797               	.LBB417:
 798               	.LM102:
 799 019e 3499      		sbic 38-32,4
 800               	.LBE417:
 801               	.LBE416:
 802               	.LM103:
 803 01a0 1160      		ori r17,lo8(1)
 804               	.L55:
 805               	.LBB418:
 806               	.LBB419:
 807               	.LBB420:
 808               	.LBB421:
 809               	.LBB422:
 810               	.LBB423:
 811               	.LM104:
 812 01a2 8F2D      		mov r24,r15
 813               	.LVL38:
 814               	/* #APP */
 815               	 ;  83 "c:/winavr-20100110/lib/gcc/../../avr/include/util/delay_basic.h" 1
 816 01a4 8A95      		1: dec r24
 817 01a6 01F4      		brne 1b
 818               	 ;  0 "" 2
 819               	/* #NOAPP */
 820               	.LBE423:
 821               	.LBE422:
 822               	.LBE421:
 823               	.LBE420:
 824               	.LBE419:
 825               	.LBE418:
 826               	.LM105:
 827 01a8 80E0      		ldi r24,lo8(0)
 828               	.LVL39:
 829 01aa 0E94 0000 		call I2C_SCL_Set_Output
 830               	.LM106:
 831 01ae 0F5F      		subi r16,lo8(-(1))
 832 01b0 0830      		cpi r16,lo8(8)
 833 01b2 01F4      		brne .L56
 834               	.LBE403:
 835               	.LBB424:
 836               	.LBB425:
 837               	.LBB426:
 838               	.LBB427:
 839               	.LBB428:
 840               	.LBB429:
 841               	.LM107:
 842 01b4 80E5      		ldi r24,lo8(80)
 843               	.LVL40:
 844               	/* #APP */
 845               	 ;  83 "c:/winavr-20100110/lib/gcc/../../avr/include/util/delay_basic.h" 1
 846 01b6 8A95      		1: dec r24
 847 01b8 01F4      		brne 1b
 848               	 ;  0 "" 2
 849               	/* #NOAPP */
 850               	.LBE429:
 851               	.LBE428:
 852               	.LBE427:
 853               	.LBE426:
 854               	.LBE425:
 855               	.LBE424:
 856               	.LM108:
 857 01ba 81E0      		ldi r24,lo8(1)
 858               	.LVL41:
 859 01bc 0E94 0000 		call I2C_SCL_Set_Output
 860               	.LM109:
 861 01c0 812F      		mov r24,r17
 862               	/* epilogue start */
 863 01c2 1F91      		pop r17
 864               	.LVL42:
 865 01c4 0F91      		pop r16
 866               	.LVL43:
 867 01c6 FF90      		pop r15
 868 01c8 0895      		ret
 869               	.LFE26:
 871               	.global	I2C_Set_Ack
 873               	I2C_Set_Ack:
 874               	.LFB27:
 875               	.LM110:
 876 01ca 1F93      		push r17
 877               	/* prologue: function */
 878               	/* frame size = 0 */
 879               	.LM111:
 880 01cc 80E0      		ldi r24,lo8(0)
 881 01ce 0E94 0000 		call I2C_SDA_Set_Output
 882               	.LBB430:
 883               	.LBB431:
 884               	.LBB432:
 885               	.LBB433:
 886               	.LBB434:
 887               	.LBB435:
 888               	.LM112:
 889 01d2 10E5      		ldi r17,lo8(80)
 890 01d4 812F      		mov r24,r17
 891               	.LVL44:
 892               	/* #APP */
 893               	 ;  83 "c:/winavr-20100110/lib/gcc/../../avr/include/util/delay_basic.h" 1
 894 01d6 8A95      		1: dec r24
 895 01d8 01F4      		brne 1b
 896               	 ;  0 "" 2
 897               	/* #NOAPP */
 898               	.LBE435:
 899               	.LBE434:
 900               	.LBE433:
 901               	.LBE432:
 902               	.LBE431:
 903               	.LBE430:
 904               	.LM113:
 905 01da 81E0      		ldi r24,lo8(1)
 906               	.LVL45:
 907 01dc 0E94 0000 		call I2C_SCL_Set_Output
 908               	.LBB436:
 909               	.LBB437:
 910               	.LBB438:
 911               	.LBB439:
 912               	.LBB440:
 913               	.LBB441:
 914               	.LM114:
 915               	/* #APP */
 916               	 ;  83 "c:/winavr-20100110/lib/gcc/../../avr/include/util/delay_basic.h" 1
 917 01e0 1A95      		1: dec r17
 918 01e2 01F4      		brne 1b
 919               	 ;  0 "" 2
 920               	.LVL46:
 921               	/* #NOAPP */
 922               	.LBE441:
 923               	.LBE440:
 924               	.LBE439:
 925               	.LBE438:
 926               	.LBE437:
 927               	.LBE436:
 928               	.LM115:
 929 01e4 80E0      		ldi r24,lo8(0)
 930 01e6 0E94 0000 		call I2C_SCL_Set_Output
 931               	/* epilogue start */
 932               	.LM116:
 933 01ea 1F91      		pop r17
 934               	.LVL47:
 935 01ec 0895      		ret
 936               	.LFE27:
 938               	.global	I2C_Set_Nack
 940               	I2C_Set_Nack:
 941               	.LFB28:
 942               	.LM117:
 943 01ee 1F93      		push r17
 944               	/* prologue: function */
 945               	/* frame size = 0 */
 946               	.LM118:
 947 01f0 81E0      		ldi r24,lo8(1)
 948 01f2 0E94 0000 		call I2C_SDA_Set_Output
 949               	.LBB442:
 950               	.LBB443:
 951               	.LBB444:
 952               	.LBB445:
 953               	.LBB446:
 954               	.LBB447:
 955               	.LM119:
 956 01f6 10E5      		ldi r17,lo8(80)
 957 01f8 812F      		mov r24,r17
 958               	.LVL48:
 959               	/* #APP */
 960               	 ;  83 "c:/winavr-20100110/lib/gcc/../../avr/include/util/delay_basic.h" 1
 961 01fa 8A95      		1: dec r24
 962 01fc 01F4      		brne 1b
 963               	 ;  0 "" 2
 964               	/* #NOAPP */
 965               	.LBE447:
 966               	.LBE446:
 967               	.LBE445:
 968               	.LBE444:
 969               	.LBE443:
 970               	.LBE442:
 971               	.LM120:
 972 01fe 81E0      		ldi r24,lo8(1)
 973               	.LVL49:
 974 0200 0E94 0000 		call I2C_SCL_Set_Output
 975               	.LBB448:
 976               	.LBB449:
 977               	.LBB450:
 978               	.LBB451:
 979               	.LBB452:
 980               	.LBB453:
 981               	.LM121:
 982               	/* #APP */
 983               	 ;  83 "c:/winavr-20100110/lib/gcc/../../avr/include/util/delay_basic.h" 1
 984 0204 1A95      		1: dec r17
 985 0206 01F4      		brne 1b
 986               	 ;  0 "" 2
 987               	.LVL50:
 988               	/* #NOAPP */
 989               	.LBE453:
 990               	.LBE452:
 991               	.LBE451:
 992               	.LBE450:
 993               	.LBE449:
 994               	.LBE448:
 995               	.LM122:
 996 0208 80E0      		ldi r24,lo8(0)
 997 020a 0E94 0000 		call I2C_SCL_Set_Output
 998               	/* epilogue start */
 999               	.LM123:
 1000 020e 1F91      		pop r17
 1001               	.LVL51:
 1002 0210 0895      		ret
 1003               	.LFE28:
 1005               	.global	I2C_Get_Ack
 1007               	I2C_Get_Ack:
 1008               	.LFB29:
 1009               	.LM124:
 1010 0212 0F93      		push r16
 1011 0214 1F93      		push r17
 1012               	/* prologue: function */
 1013               	/* frame size = 0 */
 1014               	.LM125:
 1015 0216 81E0      		ldi r24,lo8(1)
 1016 0218 0E94 0000 		call I2C_SDA_Set_Output
 1017               	.LBB454:
 1018               	.LBB455:
 1019               	.LBB456:
 1020               	.LBB457:
 1021               	.LBB458:
 1022               	.LBB459:
 1023               	.LM126:
 1024 021c 00E5      		ldi r16,lo8(80)
 1025 021e 802F      		mov r24,r16
 1026               	.LVL52:
 1027               	/* #APP */
 1028               	 ;  83 "c:/winavr-20100110/lib/gcc/../../avr/include/util/delay_basic.h" 1
 1029 0220 8A95      		1: dec r24
 1030 0222 01F4      		brne 1b
 1031               	 ;  0 "" 2
 1032               	/* #NOAPP */
 1033               	.LBE459:
 1034               	.LBE458:
 1035               	.LBE457:
 1036               	.LBE456:
 1037               	.LBE455:
 1038               	.LBE454:
 1039               	.LM127:
 1040 0224 81E0      		ldi r24,lo8(1)
 1041               	.LVL53:
 1042 0226 0E94 0000 		call I2C_SCL_Set_Output
 1043               	.LBB460:
 1044               	.LBB461:
 1045               	.LM128:
 1046 022a 16B1      		in r17,38-32
 1047               	.LBE461:
 1048               	.LBE460:
 1049               	.LBB462:
 1050               	.LBB463:
 1051               	.LBB464:
 1052               	.LBB465:
 1053               	.LBB466:
 1054               	.LBB467:
 1055               	.LM129:
 1056               	/* #APP */
 1057               	 ;  83 "c:/winavr-20100110/lib/gcc/../../avr/include/util/delay_basic.h" 1
 1058 022c 0A95      		1: dec r16
 1059 022e 01F4      		brne 1b
 1060               	 ;  0 "" 2
 1061               	.LVL54:
 1062               	/* #NOAPP */
 1063               	.LBE467:
 1064               	.LBE466:
 1065               	.LBE465:
 1066               	.LBE464:
 1067               	.LBE463:
 1068               	.LBE462:
 1069               	.LM130:
 1070 0230 80E0      		ldi r24,lo8(0)
 1071 0232 0E94 0000 		call I2C_SCL_Set_Output
 1072               	.LBB468:
 1073               	.LBB469:
 1074               	.LBB470:
 1075               	.LBB471:
 1076               	.LBB472:
 1077               	.LBB473:
 1078               	.LM131:
 1079 0236 88E0      		ldi r24,lo8(8)
 1080               	.LVL55:
 1081               	/* #APP */
 1082               	 ;  83 "c:/winavr-20100110/lib/gcc/../../avr/include/util/delay_basic.h" 1
 1083 0238 8A95      		1: dec r24
 1084 023a 01F4      		brne 1b
 1085               	 ;  0 "" 2
 1086               	/* #NOAPP */
 1087 023c 1295      		swap r17
 1088 023e 1F70      		andi r17,lo8(15)
 1089 0240 1095      		com r17
 1090               	.LBE473:
 1091               	.LBE472:
 1092               	.LBE471:
 1093               	.LBE470:
 1094               	.LBE469:
 1095               	.LBE468:
 1096               	.LM132:
 1097 0242 812F      		mov r24,r17
 1098               	.LVL56:
 1099 0244 8170      		andi r24,lo8(1)
 1100               	/* epilogue start */
 1101 0246 1F91      		pop r17
 1102 0248 0F91      		pop r16
 1103               	.LVL57:
 1104 024a 0895      		ret
 1105               	.LFE29:
 1107               	.global	I2C_Send_Device_Address
 1109               	I2C_Send_Device_Address:
 1110               	.LFB30:
 1111               	.LM133:
 1112               	.LVL58:
 1113 024c 1F93      		push r17
 1114               	/* prologue: function */
 1115               	/* frame size = 0 */
 1116 024e 182F      		mov r17,r24
 1117               	.LM134:
 1118 0250 0E94 0000 		call I2C_Start
 1119               	.LVL59:
 1120               	.LM135:
 1121 0254 812F      		mov r24,r17
 1122 0256 0E94 0000 		call I2C_Data_Send
 1123               	.LM136:
 1124 025a 0E94 0000 		call I2C_Get_Ack
 1125 025e 182F      		mov r17,r24
 1126               	.LVL60:
 1127               	.LM137:
 1128 0260 0E94 0000 		call I2C_Stop
 1129               	.LM138:
 1130 0264 812F      		mov r24,r17
 1131               	/* epilogue start */
 1132 0266 1F91      		pop r17
 1133               	.LVL61:
 1134 0268 0895      		ret
 1135               	.LFE30:
 1137               	.global	I2C_Get_Device_Address
 1139               	I2C_Get_Device_Address:
 1140               	.LFB31:
 1141               	.LM139:
 1142 026a 1F93      		push r17
 1143               	/* prologue: function */
 1144               	/* frame size = 0 */
 1145               	.LM140:
 1146 026c 10E0      		ldi r17,lo8(0)
 1147               	.LVL62:
 1148               	.L70:
 1149               	.LBB474:
 1150               	.LM141:
 1151 026e 812F      		mov r24,r17
 1152               	.LVL63:
 1153 0270 0E94 0000 		call I2C_Send_Device_Address
 1154               	.LM142:
 1155 0274 8130      		cpi r24,lo8(1)
 1156               	.LVL64:
 1157 0276 01F4      		brne .L68
 1158 0278 812F      		mov r24,r17
 1159 027a 00C0      		rjmp .L69
 1160               	.L68:
 1161               	.LM143:
 1162 027c 1F5F      		subi r17,lo8(-(1))
 1163 027e 1F3F      		cpi r17,lo8(-1)
 1164 0280 01F4      		brne .L70
 1165               	.L69:
 1166               	.LVL65:
 1167               	/* epilogue start */
 1168               	.LBE474:
 1169               	.LM144:
 1170 0282 1F91      		pop r17
 1171               	.LVL66:
 1172 0284 0895      		ret
 1173               	.LFE31:
 1175               	.global	I2C_Read_Register
 1177               	I2C_Read_Register:
 1178               	.LFB32:
 1179               	.LM145:
 1180               	.LVL67:
 1181 0286 DF92      		push r13
 1182 0288 EF92      		push r14
 1183 028a FF92      		push r15
 1184 028c 0F93      		push r16
 1185 028e 1F93      		push r17
 1186               	/* prologue: function */
 1187               	/* frame size = 0 */
 1188 0290 182F      		mov r17,r24
 1189               	.LM146:
 1190 0292 0E94 0000 		call I2C_Start
 1191               	.LVL68:
 1192               	.LM147:
 1193 0296 8091 0000 		lds r24,I2C
 1194 029a 0E94 0000 		call I2C_Data_Send
 1195               	.LM148:
 1196 029e 0E94 0000 		call I2C_Get_Ack
 1197 02a2 E82E      		mov r14,r24
 1198               	.LM149:
 1199 02a4 812F      		mov r24,r17
 1200 02a6 0E94 0000 		call I2C_Data_Send
 1201               	.LM150:
 1202 02aa 0E94 0000 		call I2C_Get_Ack
 1203 02ae F82E      		mov r15,r24
 1204               	.LM151:
 1205 02b0 0E94 0000 		call I2C_Stop
 1206               	.LM152:
 1207 02b4 0E94 0000 		call I2C_Start
 1208               	.LM153:
 1209 02b8 8091 0000 		lds r24,I2C+1
 1210 02bc 0E94 0000 		call I2C_Data_Send
 1211               	.LM154:
 1212 02c0 0E94 0000 		call I2C_Get_Ack
 1213 02c4 182F      		mov r17,r24
 1214               	.LVL69:
 1215               	.LM155:
 1216 02c6 0E94 0000 		call I2C_Data_Receive
 1217 02ca D82E      		mov r13,r24
 1218               	.LVL70:
 1219               	.LM156:
 1220 02cc 0E94 0000 		call I2C_Get_Ack
 1221 02d0 082F      		mov r16,r24
 1222               	.LM157:
 1223 02d2 0E94 0000 		call I2C_Stop
 1224               	.LM158:
 1225 02d6 FF0C      		lsl r15
 1226 02d8 110F      		lsl r17
 1227 02da 110F      		lsl r17
 1228 02dc 1F29      		or r17,r15
 1229 02de 1E29      		or r17,r14
 1230 02e0 000F      		lsl r16
 1231 02e2 000F      		lsl r16
 1232 02e4 000F      		lsl r16
 1233 02e6 012B      		or r16,r17
 1234 02e8 0730      		cpi r16,lo8(7)
 1235 02ea 01F4      		brne .L74
 1236               	.LM159:
 1237 02ec 1092 0000 		sts I2C+2,__zero_reg__
 1238 02f0 8D2D      		mov r24,r13
 1239               	.LVL71:
 1240 02f2 00C0      		rjmp .L75
 1241               	.LVL72:
 1242               	.L74:
 1243               	.LM160:
 1244 02f4 81E0      		ldi r24,lo8(1)
 1245 02f6 8093 0000 		sts I2C+2,r24
 1246               	.LM161:
 1247 02fa 8091 0000 		lds r24,I2C+3
 1248 02fe 9091 0000 		lds r25,(I2C+3)+1
 1249 0302 0196      		adiw r24,1
 1250 0304 9093 0000 		sts (I2C+3)+1,r25
 1251 0308 8093 0000 		sts I2C+3,r24
 1252 030c 8FEF      		ldi r24,lo8(-1)
 1253               	.LVL73:
 1254               	.L75:
 1255               	.LVL74:
 1256               	/* epilogue start */
 1257               	.LM162:
 1258 030e 1F91      		pop r17
 1259 0310 0F91      		pop r16
 1260 0312 FF90      		pop r15
 1261 0314 EF90      		pop r14
 1262 0316 DF90      		pop r13
 1263               	.LVL75:
 1264 0318 0895      		ret
 1265               	.LFE32:
 1267               	.global	I2C_Write_Register
 1269               	I2C_Write_Register:
 1270               	.LFB33:
 1271               	.LM163:
 1272               	.LVL76:
 1273 031a EF92      		push r14
 1274 031c FF92      		push r15
 1275 031e 0F93      		push r16
 1276 0320 1F93      		push r17
 1277               	/* prologue: function */
 1278               	/* frame size = 0 */
 1279 0322 182F      		mov r17,r24
 1280 0324 F62E      		mov r15,r22
 1281               	.LM164:
 1282 0326 0E94 0000 		call I2C_Start
 1283               	.LVL77:
 1284               	.LM165:
 1285 032a 8091 0000 		lds r24,I2C
 1286 032e 0E94 0000 		call I2C_Data_Send
 1287               	.LM166:
 1288 0332 0E94 0000 		call I2C_Get_Ack
 1289 0336 E82E      		mov r14,r24
 1290               	.LM167:
 1291 0338 812F      		mov r24,r17
 1292 033a 0E94 0000 		call I2C_Data_Send
 1293               	.LM168:
 1294 033e 0E94 0000 		call I2C_Get_Ack
 1295 0342 082F      		mov r16,r24
 1296               	.LM169:
 1297 0344 8F2D      		mov r24,r15
 1298 0346 0E94 0000 		call I2C_Data_Send
 1299               	.LM170:
 1300 034a 0E94 0000 		call I2C_Get_Ack
 1301 034e 182F      		mov r17,r24
 1302               	.LVL78:
 1303               	.LM171:
 1304 0350 0E94 0000 		call I2C_Stop
 1305               	.LM172:
 1306 0354 000F      		lsl r16
 1307 0356 110F      		lsl r17
 1308 0358 110F      		lsl r17
 1309 035a 102B      		or r17,r16
 1310 035c 1E29      		or r17,r14
 1311 035e 1730      		cpi r17,lo8(7)
 1312 0360 01F4      		brne .L78
 1313               	.LM173:
 1314 0362 1092 0000 		sts I2C+2,__zero_reg__
 1315 0366 00C0      		rjmp .L80
 1316               	.L78:
 1317               	.LM174:
 1318 0368 82E0      		ldi r24,lo8(2)
 1319 036a 8093 0000 		sts I2C+2,r24
 1320               	.LM175:
 1321 036e 8091 0000 		lds r24,I2C+3
 1322 0372 9091 0000 		lds r25,(I2C+3)+1
 1323 0376 0196      		adiw r24,1
 1324 0378 9093 0000 		sts (I2C+3)+1,r25
 1325 037c 8093 0000 		sts I2C+3,r24
 1326               	.L80:
 1327               	/* epilogue start */
 1328               	.LM176:
 1329 0380 1F91      		pop r17
 1330 0382 0F91      		pop r16
 1331 0384 FF90      		pop r15
 1332               	.LVL79:
 1333 0386 EF90      		pop r14
 1334 0388 0895      		ret
 1335               	.LFE33:
 1337               	.global	I2C_Get_Error
 1339               	I2C_Get_Error:
 1340               	.LFB34:
 1341               	.LM177:
 1342               	/* prologue: function */
 1343               	/* frame size = 0 */
 1344               	.LM178:
 1345 038a 8091 0000 		lds r24,I2C+2
 1346               	/* epilogue start */
 1347 038e 0895      		ret
 1348               	.LFE34:
 1350               	.global	I2C_Get_ErrorAccu
 1352               	I2C_Get_ErrorAccu:
 1353               	.LFB35:
 1354               	.LM179:
 1355               	/* prologue: function */
 1356               	/* frame size = 0 */
 1357               	.LM180:
 1358 0390 8091 0000 		lds r24,I2C+3
 1359 0394 9091 0000 		lds r25,I2C+4
 1360               	/* epilogue start */
 1361 0398 0895      		ret
 1362               	.LFE35:
 1364               	.global	I2C_Set_Mode_Sleep
 1366               	I2C_Set_Mode_Sleep:
 1367               	.LFB37:
 1368               	.LM181:
 1369               	/* prologue: function */
 1370               	/* frame size = 0 */
 1371               	.LM182:
 1372 039a 8BE6      		ldi r24,lo8(107)
 1373 039c 0E94 0000 		call I2C_Read_Register
 1374 03a0 86FD      		sbrc r24,6
 1375 03a2 00C0      		rjmp .L87
 1376               	.LM183:
 1377 03a4 8BE6      		ldi r24,lo8(107)
 1378 03a6 60E4      		ldi r22,lo8(64)
 1379 03a8 0E94 0000 		call I2C_Write_Register
 1380               	.L87:
 1381 03ac 0895      		ret
 1382               	.LFE37:
 1384               	.global	I2C_Set_Mode_Active
 1386               	I2C_Set_Mode_Active:
 1387               	.LFB38:
 1388               	.LM184:
 1389               	/* prologue: function */
 1390               	/* frame size = 0 */
 1391               	.LM185:
 1392 03ae 8BE6      		ldi r24,lo8(107)
 1393 03b0 0E94 0000 		call I2C_Read_Register
 1394 03b4 86FF      		sbrs r24,6
 1395 03b6 00C0      		rjmp .L90
 1396               	.LM186:
 1397 03b8 8BE6      		ldi r24,lo8(107)
 1398 03ba 60E0      		ldi r22,lo8(0)
 1399 03bc 0E94 0000 		call I2C_Write_Register
 1400               	.L90:
 1401 03c0 0895      		ret
 1402               	.LFE38:
 1404               	.global	I2C_Read_Temp
 1406               	I2C_Read_Temp:
 1407               	.LFB45:
 1408               	.LM187:
 1409 03c2 1F93      		push r17
 1410               	/* prologue: function */
 1411               	/* frame size = 0 */
 1412               	.LM188:
 1413 03c4 81E4      		ldi r24,lo8(65)
 1414 03c6 0E94 0000 		call I2C_Read_Register
 1415 03ca 182F      		mov r17,r24
 1416               	.LM189:
 1417 03cc 82E4      		ldi r24,lo8(66)
 1418 03ce 0E94 0000 		call I2C_Read_Register
 1419 03d2 282F      		mov r18,r24
 1420               	.LM190:
 1421 03d4 8091 0000 		lds r24,I2C+2
 1422 03d8 8823      		tst r24
 1423 03da 01F0      		breq .L92
 1424 03dc 20E0      		ldi r18,lo8(0)
 1425 03de 30E0      		ldi r19,hi8(0)
 1426               	.LVL80:
 1427 03e0 00C0      		rjmp .L93
 1428               	.LVL81:
 1429               	.L92:
 1430               	.LM191:
 1431 03e2 912F      		mov r25,r17
 1432               	.LVL82:
 1433 03e4 80E0      		ldi r24,lo8(0)
 1434               	.LVL83:
 1435               	.LM192:
 1436 03e6 30E0      		ldi r19,lo8(0)
 1437               	.LM193:
 1438 03e8 822B      		or r24,r18
 1439 03ea 932B      		or r25,r19
 1440               	.LVL84:
 1441 03ec 64E5      		ldi r22,lo8(340)
 1442 03ee 71E0      		ldi r23,hi8(340)
 1443 03f0 0E94 0000 		call __divmodhi4
 1444               	.LM194:
 1445 03f4 9B01      		movw r18,r22
 1446               	.LVL85:
 1447 03f6 2C5D      		subi r18,lo8(-(36))
 1448 03f8 3F4F      		sbci r19,hi8(-(36))
 1449               	.LVL86:
 1450               	.L93:
 1451               	.LM195:
 1452 03fa C901      		movw r24,r18
 1453               	.LVL87:
 1454               	/* epilogue start */
 1455 03fc 1F91      		pop r17
 1456 03fe 0895      		ret
 1457               	.LFE45:
 1459               	.global	I2C_Read_Gyro_Z
 1461               	I2C_Read_Gyro_Z:
 1462               	.LFB44:
 1463               	.LM196:
 1464 0400 EF92      		push r14
 1465 0402 FF92      		push r15
 1466 0404 0F93      		push r16
 1467 0406 1F93      		push r17
 1468               	/* prologue: function */
 1469               	/* frame size = 0 */
 1470               	.LM197:
 1471 0408 87E4      		ldi r24,lo8(71)
 1472 040a 0E94 0000 		call I2C_Read_Register
 1473               	.LM198:
 1474 040e F82E      		mov r15,r24
 1475               	.LVL88:
 1476 0410 EE24      		clr r14
 1477               	.LVL89:
 1478               	.LM199:
 1479 0412 88E4      		ldi r24,lo8(72)
 1480 0414 0E94 0000 		call I2C_Read_Register
 1481               	.LM200:
 1482 0418 90E0      		ldi r25,lo8(0)
 1483 041a E82A      		or r14,r24
 1484 041c F92A      		or r15,r25
 1485               	.LVL90:
 1486 041e 0027      		clr r16
 1487 0420 F7FC      		sbrc r15,7
 1488 0422 0095      		com r16
 1489 0424 102F      		mov r17,r16
 1490               	.LVL91:
 1491 0426 85E0      		ldi r24,lo8(5)
 1492 0428 B801      		movw r22,r16
 1493 042a A701      		movw r20,r14
 1494 042c 0E94 0000 		call LPF_Get_Filtered_Value
 1495 0430 9B01      		movw r18,r22
 1496 0432 AC01      		movw r20,r24
 1497               	.LM201:
 1498 0434 8091 0000 		lds r24,I2C+2
 1499 0438 8823      		tst r24
 1500 043a 01F0      		breq .L96
 1501 043c 60E0      		ldi r22,lo8(0)
 1502 043e 70E0      		ldi r23,hi8(0)
 1503               	.LVL92:
 1504 0440 00C0      		rjmp .L97
 1505               	.LVL93:
 1506               	.L96:
 1507               	.LM202:
 1508 0442 B901      		movw r22,r18
 1509               	.LVL94:
 1510               	.L97:
 1511               	.LM203:
 1512 0444 CB01      		movw r24,r22
 1513               	.LVL95:
 1514               	/* epilogue start */
 1515 0446 1F91      		pop r17
 1516 0448 0F91      		pop r16
 1517 044a FF90      		pop r15
 1518               	.LVL96:
 1519 044c EF90      		pop r14
 1520 044e 0895      		ret
 1521               	.LFE44:
 1523               	.global	I2C_Read_Gyro_Y
 1525               	I2C_Read_Gyro_Y:
 1526               	.LFB43:
 1527               	.LM204:
 1528 0450 EF92      		push r14
 1529 0452 FF92      		push r15
 1530 0454 0F93      		push r16
 1531 0456 1F93      		push r17
 1532               	/* prologue: function */
 1533               	/* frame size = 0 */
 1534               	.LM205:
 1535 0458 85E4      		ldi r24,lo8(69)
 1536 045a 0E94 0000 		call I2C_Read_Register
 1537               	.LM206:
 1538 045e F82E      		mov r15,r24
 1539               	.LVL97:
 1540 0460 EE24      		clr r14
 1541               	.LVL98:
 1542               	.LM207:
 1543 0462 86E4      		ldi r24,lo8(70)
 1544 0464 0E94 0000 		call I2C_Read_Register
 1545               	.LM208:
 1546 0468 90E0      		ldi r25,lo8(0)
 1547 046a E82A      		or r14,r24
 1548 046c F92A      		or r15,r25
 1549               	.LVL99:
 1550 046e 0027      		clr r16
 1551 0470 F7FC      		sbrc r15,7
 1552 0472 0095      		com r16
 1553 0474 102F      		mov r17,r16
 1554               	.LVL100:
 1555 0476 84E0      		ldi r24,lo8(4)
 1556 0478 B801      		movw r22,r16
 1557 047a A701      		movw r20,r14
 1558 047c 0E94 0000 		call LPF_Get_Filtered_Value
 1559               	.LM209:
 1560 0480 CB01      		movw r24,r22
 1561               	/* epilogue start */
 1562 0482 1F91      		pop r17
 1563 0484 0F91      		pop r16
 1564 0486 FF90      		pop r15
 1565               	.LVL101:
 1566 0488 EF90      		pop r14
 1567 048a 0895      		ret
 1568               	.LFE43:
 1570               	.global	I2C_Read_Gyro_X
 1572               	I2C_Read_Gyro_X:
 1573               	.LFB42:
 1574               	.LM210:
 1575 048c EF92      		push r14
 1576 048e FF92      		push r15
 1577 0490 0F93      		push r16
 1578 0492 1F93      		push r17
 1579               	/* prologue: function */
 1580               	/* frame size = 0 */
 1581               	.LM211:
 1582 0494 83E4      		ldi r24,lo8(67)
 1583 0496 0E94 0000 		call I2C_Read_Register
 1584               	.LM212:
 1585 049a F82E      		mov r15,r24
 1586               	.LVL102:
 1587 049c EE24      		clr r14
 1588               	.LVL103:
 1589               	.LM213:
 1590 049e 84E4      		ldi r24,lo8(68)
 1591 04a0 0E94 0000 		call I2C_Read_Register
 1592               	.LM214:
 1593 04a4 90E0      		ldi r25,lo8(0)
 1594 04a6 E82A      		or r14,r24
 1595 04a8 F92A      		or r15,r25
 1596               	.LVL104:
 1597 04aa 0027      		clr r16
 1598 04ac F7FC      		sbrc r15,7
 1599 04ae 0095      		com r16
 1600 04b0 102F      		mov r17,r16
 1601               	.LVL105:
 1602 04b2 83E0      		ldi r24,lo8(3)
 1603 04b4 B801      		movw r22,r16
 1604 04b6 A701      		movw r20,r14
 1605 04b8 0E94 0000 		call LPF_Get_Filtered_Value
 1606 04bc 9B01      		movw r18,r22
 1607 04be AC01      		movw r20,r24
 1608               	.LM215:
 1609 04c0 8091 0000 		lds r24,I2C+2
 1610 04c4 8823      		tst r24
 1611 04c6 01F0      		breq .L102
 1612 04c8 60E0      		ldi r22,lo8(0)
 1613 04ca 70E0      		ldi r23,hi8(0)
 1614               	.LVL106:
 1615 04cc 00C0      		rjmp .L103
 1616               	.LVL107:
 1617               	.L102:
 1618               	.LM216:
 1619 04ce B901      		movw r22,r18
 1620               	.LVL108:
 1621               	.L103:
 1622               	.LM217:
 1623 04d0 CB01      		movw r24,r22
 1624               	.LVL109:
 1625               	/* epilogue start */
 1626 04d2 1F91      		pop r17
 1627 04d4 0F91      		pop r16
 1628 04d6 FF90      		pop r15
 1629               	.LVL110:
 1630 04d8 EF90      		pop r14
 1631 04da 0895      		ret
 1632               	.LFE42:
 1634               	.global	I2C_Read_Acc_Z
 1636               	I2C_Read_Acc_Z:
 1637               	.LFB41:
 1638               	.LM218:
 1639 04dc EF92      		push r14
 1640 04de FF92      		push r15
 1641 04e0 0F93      		push r16
 1642 04e2 1F93      		push r17
 1643               	/* prologue: function */
 1644               	/* frame size = 0 */
 1645               	.LM219:
 1646 04e4 8FE3      		ldi r24,lo8(63)
 1647 04e6 0E94 0000 		call I2C_Read_Register
 1648               	.LM220:
 1649 04ea F82E      		mov r15,r24
 1650               	.LVL111:
 1651 04ec EE24      		clr r14
 1652               	.LVL112:
 1653               	.LM221:
 1654 04ee 80E4      		ldi r24,lo8(64)
 1655 04f0 0E94 0000 		call I2C_Read_Register
 1656               	.LM222:
 1657 04f4 90E0      		ldi r25,lo8(0)
 1658 04f6 E82A      		or r14,r24
 1659 04f8 F92A      		or r15,r25
 1660               	.LVL113:
 1661 04fa 0027      		clr r16
 1662 04fc F7FC      		sbrc r15,7
 1663 04fe 0095      		com r16
 1664 0500 102F      		mov r17,r16
 1665               	.LVL114:
 1666 0502 82E0      		ldi r24,lo8(2)
 1667 0504 B801      		movw r22,r16
 1668 0506 A701      		movw r20,r14
 1669 0508 0E94 0000 		call LPF_Get_Filtered_Value
 1670 050c 9B01      		movw r18,r22
 1671 050e AC01      		movw r20,r24
 1672               	.LM223:
 1673 0510 8091 0000 		lds r24,I2C+2
 1674 0514 8823      		tst r24
 1675 0516 01F0      		breq .L106
 1676 0518 60E0      		ldi r22,lo8(0)
 1677 051a 70E0      		ldi r23,hi8(0)
 1678               	.LVL115:
 1679 051c 00C0      		rjmp .L107
 1680               	.LVL116:
 1681               	.L106:
 1682               	.LM224:
 1683 051e B901      		movw r22,r18
 1684               	.LVL117:
 1685               	.L107:
 1686               	.LM225:
 1687 0520 CB01      		movw r24,r22
 1688               	.LVL118:
 1689               	/* epilogue start */
 1690 0522 1F91      		pop r17
 1691 0524 0F91      		pop r16
 1692 0526 FF90      		pop r15
 1693               	.LVL119:
 1694 0528 EF90      		pop r14
 1695 052a 0895      		ret
 1696               	.LFE41:
 1698               	.global	I2C_Read_Acc_Y
 1700               	I2C_Read_Acc_Y:
 1701               	.LFB40:
 1702               	.LM226:
 1703 052c EF92      		push r14
 1704 052e FF92      		push r15
 1705 0530 0F93      		push r16
 1706 0532 1F93      		push r17
 1707               	/* prologue: function */
 1708               	/* frame size = 0 */
 1709               	.LM227:
 1710 0534 8DE3      		ldi r24,lo8(61)
 1711 0536 0E94 0000 		call I2C_Read_Register
 1712               	.LM228:
 1713 053a F82E      		mov r15,r24
 1714               	.LVL120:
 1715 053c EE24      		clr r14
 1716               	.LVL121:
 1717               	.LM229:
 1718 053e 8EE3      		ldi r24,lo8(62)
 1719 0540 0E94 0000 		call I2C_Read_Register
 1720               	.LM230:
 1721 0544 90E0      		ldi r25,lo8(0)
 1722 0546 E82A      		or r14,r24
 1723 0548 F92A      		or r15,r25
 1724               	.LVL122:
 1725 054a 0027      		clr r16
 1726 054c F7FC      		sbrc r15,7
 1727 054e 0095      		com r16
 1728 0550 102F      		mov r17,r16
 1729               	.LVL123:
 1730 0552 81E0      		ldi r24,lo8(1)
 1731 0554 B801      		movw r22,r16
 1732 0556 A701      		movw r20,r14
 1733 0558 0E94 0000 		call LPF_Get_Filtered_Value
 1734 055c 9B01      		movw r18,r22
 1735 055e AC01      		movw r20,r24
 1736               	.LM231:
 1737 0560 8091 0000 		lds r24,I2C+2
 1738 0564 8823      		tst r24
 1739 0566 01F0      		breq .L110
 1740 0568 60E0      		ldi r22,lo8(0)
 1741 056a 70E0      		ldi r23,hi8(0)
 1742               	.LVL124:
 1743 056c 00C0      		rjmp .L111
 1744               	.LVL125:
 1745               	.L110:
 1746               	.LM232:
 1747 056e B901      		movw r22,r18
 1748               	.LVL126:
 1749               	.L111:
 1750               	.LM233:
 1751 0570 CB01      		movw r24,r22
 1752               	.LVL127:
 1753               	/* epilogue start */
 1754 0572 1F91      		pop r17
 1755 0574 0F91      		pop r16
 1756 0576 FF90      		pop r15
 1757               	.LVL128:
 1758 0578 EF90      		pop r14
 1759 057a 0895      		ret
 1760               	.LFE40:
 1762               	.global	I2C_Read_Roll_Angle
 1764               	I2C_Read_Roll_Angle:
 1765               	.LFB47:
 1766               	.LM234:
 1767 057c AF92      		push r10
 1768 057e BF92      		push r11
 1769 0580 CF92      		push r12
 1770 0582 DF92      		push r13
 1771 0584 EF92      		push r14
 1772 0586 FF92      		push r15
 1773 0588 0F93      		push r16
 1774 058a 1F93      		push r17
 1775               	/* prologue: function */
 1776               	/* frame size = 0 */
 1777               	.LM235:
 1778 058c 8091 0000 		lds r24,I2C+2
 1779 0590 8823      		tst r24
 1780 0592 01F0      		breq .L114
 1781 0594 60E0      		ldi r22,lo8(0)
 1782 0596 70E0      		ldi r23,hi8(0)
 1783 0598 00C0      		rjmp .L115
 1784               	.L114:
 1785               	.LBB475:
 1786               	.LM236:
 1787 059a 0E94 0000 		call I2C_Read_Acc_Y
 1788 059e 7C01      		movw r14,r24
 1789               	.LM237:
 1790 05a0 0E94 0000 		call I2C_Read_Acc_Z
 1791 05a4 5C01      		movw r10,r24
 1792               	.LM238:
 1793 05a6 0027      		clr r16
 1794 05a8 F7FC      		sbrc r15,7
 1795 05aa 0095      		com r16
 1796 05ac 102F      		mov r17,r16
 1797 05ae C801      		movw r24,r16
 1798 05b0 B701      		movw r22,r14
 1799 05b2 0E94 0000 		call __floatsisf
 1800 05b6 7B01      		movw r14,r22
 1801 05b8 8C01      		movw r16,r24
 1802 05ba CC24      		clr r12
 1803 05bc B7FC      		sbrc r11,7
 1804 05be C094      		com r12
 1805 05c0 DC2C      		mov r13,r12
 1806 05c2 C601      		movw r24,r12
 1807 05c4 B501      		movw r22,r10
 1808 05c6 0E94 0000 		call __floatsisf
 1809 05ca 9B01      		movw r18,r22
 1810 05cc AC01      		movw r20,r24
 1811 05ce C801      		movw r24,r16
 1812 05d0 B701      		movw r22,r14
 1813 05d2 0E94 0000 		call __divsf3
 1814 05d6 0E94 0000 		call atan
 1815               	.LM239:
 1816 05da 20E0      		ldi r18,lo8(0x41200000)
 1817 05dc 30E0      		ldi r19,hi8(0x41200000)
 1818 05de 40E2      		ldi r20,hlo8(0x41200000)
 1819 05e0 51E4      		ldi r21,hhi8(0x41200000)
 1820 05e2 0E94 0000 		call __mulsf3
 1821               	.LM240:
 1822 05e6 23E3      		ldi r18,lo8(0x42653333)
 1823 05e8 33E3      		ldi r19,hi8(0x42653333)
 1824 05ea 45E6      		ldi r20,hlo8(0x42653333)
 1825 05ec 52E4      		ldi r21,hhi8(0x42653333)
 1826 05ee 0E94 0000 		call __mulsf3
 1827 05f2 0E94 0000 		call __fixsfsi
 1828               	.L115:
 1829               	.LBE475:
 1830               	.LM241:
 1831 05f6 CB01      		movw r24,r22
 1832               	/* epilogue start */
 1833 05f8 1F91      		pop r17
 1834 05fa 0F91      		pop r16
 1835 05fc FF90      		pop r15
 1836 05fe EF90      		pop r14
 1837 0600 DF90      		pop r13
 1838 0602 CF90      		pop r12
 1839 0604 BF90      		pop r11
 1840 0606 AF90      		pop r10
 1841 0608 0895      		ret
 1842               	.LFE47:
 1844               	.global	I2C_Read_Acc_X
 1846               	I2C_Read_Acc_X:
 1847               	.LFB39:
 1848               	.LM242:
 1849 060a EF92      		push r14
 1850 060c FF92      		push r15
 1851 060e 0F93      		push r16
 1852 0610 1F93      		push r17
 1853               	/* prologue: function */
 1854               	/* frame size = 0 */
 1855               	.LM243:
 1856 0612 8BE3      		ldi r24,lo8(59)
 1857 0614 0E94 0000 		call I2C_Read_Register
 1858               	.LM244:
 1859 0618 F82E      		mov r15,r24
 1860               	.LVL129:
 1861 061a EE24      		clr r14
 1862               	.LVL130:
 1863               	.LM245:
 1864 061c 8CE3      		ldi r24,lo8(60)
 1865 061e 0E94 0000 		call I2C_Read_Register
 1866               	.LM246:
 1867 0622 90E0      		ldi r25,lo8(0)
 1868 0624 E82A      		or r14,r24
 1869 0626 F92A      		or r15,r25
 1870               	.LVL131:
 1871 0628 0027      		clr r16
 1872 062a F7FC      		sbrc r15,7
 1873 062c 0095      		com r16
 1874 062e 102F      		mov r17,r16
 1875               	.LVL132:
 1876 0630 80E0      		ldi r24,lo8(0)
 1877 0632 B801      		movw r22,r16
 1878 0634 A701      		movw r20,r14
 1879 0636 0E94 0000 		call LPF_Get_Filtered_Value
 1880 063a 9B01      		movw r18,r22
 1881 063c AC01      		movw r20,r24
 1882               	.LM247:
 1883 063e 8091 0000 		lds r24,I2C+2
 1884 0642 8823      		tst r24
 1885 0644 01F0      		breq .L118
 1886 0646 60E0      		ldi r22,lo8(0)
 1887 0648 70E0      		ldi r23,hi8(0)
 1888               	.LVL133:
 1889 064a 00C0      		rjmp .L119
 1890               	.LVL134:
 1891               	.L118:
 1892               	.LM248:
 1893 064c B901      		movw r22,r18
 1894               	.LVL135:
 1895               	.L119:
 1896               	.LM249:
 1897 064e CB01      		movw r24,r22
 1898               	.LVL136:
 1899               	/* epilogue start */
 1900 0650 1F91      		pop r17
 1901 0652 0F91      		pop r16
 1902 0654 FF90      		pop r15
 1903               	.LVL137:
 1904 0656 EF90      		pop r14
 1905 0658 0895      		ret
 1906               	.LFE39:
 1908               	.global	MPU6050_Restart
 1910               	MPU6050_Restart:
 1911               	.LFB49:
 1912               	.LM250:
 1913               	/* prologue: function */
 1914               	/* frame size = 0 */
 1915               	.LM251:
 1916 065a 0E94 0000 		call I2C_Set_Mode_Active
 1917               	.LBB476:
 1918               	.LBB477:
 1919               	.LBB478:
 1920               	.LBB479:
 1921               	.LM252:
 1922 065e 80E7      		ldi r24,lo8(6000)
 1923 0660 97E1      		ldi r25,hi8(6000)
 1924               	.LVL138:
 1925               	/* #APP */
 1926               	 ;  105 "c:/winavr-20100110/lib/gcc/../../avr/include/util/delay_basic.h" 1
 1927 0662 0197      		1: sbiw r24,1
 1928 0664 01F4      		brne 1b
 1929               	 ;  0 "" 2
 1930               	/* #NOAPP */
 1931               	.LBE479:
 1932               	.LBE478:
 1933               	.LBE477:
 1934               	.LBE476:
 1935               	.LM253:
 1936 0666 0E94 0000 		call I2C_Read_Acc_X
 1937               	.LVL139:
 1938               	.LM254:
 1939 066a 0E94 0000 		call I2C_Read_Acc_Y
 1940               	.LM255:
 1941 066e 0E94 0000 		call I2C_Read_Acc_Z
 1942               	.LM256:
 1943 0672 0E94 0000 		call I2C_Read_Gyro_X
 1944               	.LM257:
 1945 0676 0E94 0000 		call I2C_Read_Gyro_Y
 1946               	.LM258:
 1947 067a 0E94 0000 		call I2C_Read_Gyro_Z
 1948               	/* epilogue start */
 1949               	.LM259:
 1950 067e 0895      		ret
 1951               	.LFE49:
 1953               	.global	MPU6050_Read_Roll_Angle_Safely
 1955               	MPU6050_Read_Roll_Angle_Safely:
 1956               	.LFB51:
 1957               	.LM260:
 1958               	/* prologue: function */
 1959               	/* frame size = 0 */
 1960               	.LM261:
 1961 0680 0E94 0000 		call I2C_Read_Roll_Angle
 1962 0684 00C0      		rjmp .L124
 1963               	.L125:
 1964               	.LM262:
 1965 0686 0E94 0000 		call MPU6050_Restart
 1966               	.L124:
 1967               	.LM263:
 1968 068a 8091 0000 		lds r24,I2C+2
 1969 068e 8823      		tst r24
 1970 0690 01F4      		brne .L125
 1971               	.LM264:
 1972 0692 0E94 0000 		call I2C_Read_Roll_Angle
 1973               	/* epilogue start */
 1974               	.LM265:
 1975 0696 0895      		ret
 1976               	.LFE51:
 1978               	.global	I2C_Read_Pitch_Angle
 1980               	I2C_Read_Pitch_Angle:
 1981               	.LFB46:
 1982               	.LM266:
 1983 0698 AF92      		push r10
 1984 069a BF92      		push r11
 1985 069c CF92      		push r12
 1986 069e DF92      		push r13
 1987 06a0 EF92      		push r14
 1988 06a2 FF92      		push r15
 1989 06a4 0F93      		push r16
 1990 06a6 1F93      		push r17
 1991               	/* prologue: function */
 1992               	/* frame size = 0 */
 1993               	.LM267:
 1994 06a8 8091 0000 		lds r24,I2C+2
 1995 06ac 8823      		tst r24
 1996 06ae 01F0      		breq .L128
 1997 06b0 60E0      		ldi r22,lo8(0)
 1998 06b2 70E0      		ldi r23,hi8(0)
 1999 06b4 00C0      		rjmp .L129
 2000               	.L128:
 2001               	.LBB480:
 2002               	.LM268:
 2003 06b6 0E94 0000 		call I2C_Read_Acc_X
 2004 06ba 7C01      		movw r14,r24
 2005               	.LM269:
 2006 06bc 0E94 0000 		call I2C_Read_Acc_Z
 2007 06c0 5C01      		movw r10,r24
 2008               	.LM270:
 2009 06c2 0027      		clr r16
 2010 06c4 F7FC      		sbrc r15,7
 2011 06c6 0095      		com r16
 2012 06c8 102F      		mov r17,r16
 2013 06ca C801      		movw r24,r16
 2014 06cc B701      		movw r22,r14
 2015 06ce 0E94 0000 		call __floatsisf
 2016 06d2 7B01      		movw r14,r22
 2017 06d4 8C01      		movw r16,r24
 2018 06d6 CC24      		clr r12
 2019 06d8 B7FC      		sbrc r11,7
 2020 06da C094      		com r12
 2021 06dc DC2C      		mov r13,r12
 2022 06de C601      		movw r24,r12
 2023 06e0 B501      		movw r22,r10
 2024 06e2 0E94 0000 		call __floatsisf
 2025 06e6 9B01      		movw r18,r22
 2026 06e8 AC01      		movw r20,r24
 2027 06ea C801      		movw r24,r16
 2028 06ec B701      		movw r22,r14
 2029 06ee 0E94 0000 		call __divsf3
 2030 06f2 0E94 0000 		call atan
 2031               	.LM271:
 2032 06f6 20E0      		ldi r18,lo8(0x41200000)
 2033 06f8 30E0      		ldi r19,hi8(0x41200000)
 2034 06fa 40E2      		ldi r20,hlo8(0x41200000)
 2035 06fc 51E4      		ldi r21,hhi8(0x41200000)
 2036 06fe 0E94 0000 		call __mulsf3
 2037               	.LM272:
 2038 0702 23E3      		ldi r18,lo8(0x42653333)
 2039 0704 33E3      		ldi r19,hi8(0x42653333)
 2040 0706 45E6      		ldi r20,hlo8(0x42653333)
 2041 0708 52E4      		ldi r21,hhi8(0x42653333)
 2042 070a 0E94 0000 		call __mulsf3
 2043 070e 0E94 0000 		call __fixsfsi
 2044               	.L129:
 2045               	.LBE480:
 2046               	.LM273:
 2047 0712 CB01      		movw r24,r22
 2048               	/* epilogue start */
 2049 0714 1F91      		pop r17
 2050 0716 0F91      		pop r16
 2051 0718 FF90      		pop r15
 2052 071a EF90      		pop r14
 2053 071c DF90      		pop r13
 2054 071e CF90      		pop r12
 2055 0720 BF90      		pop r11
 2056 0722 AF90      		pop r10
 2057 0724 0895      		ret
 2058               	.LFE46:
 2060               	.global	MPU6050_Read_Pitch_Angle_Safely
 2062               	MPU6050_Read_Pitch_Angle_Safely:
 2063               	.LFB50:
 2064               	.LM274:
 2065               	/* prologue: function */
 2066               	/* frame size = 0 */
 2067               	.LM275:
 2068 0726 0E94 0000 		call I2C_Read_Pitch_Angle
 2069 072a 00C0      		rjmp .L132
 2070               	.L133:
 2071               	.LM276:
 2072 072c 0E94 0000 		call MPU6050_Restart
 2073               	.L132:
 2074               	.LM277:
 2075 0730 8091 0000 		lds r24,I2C+2
 2076 0734 8823      		tst r24
 2077 0736 01F4      		brne .L133
 2078               	.LM278:
 2079 0738 0E94 0000 		call I2C_Read_Pitch_Angle
 2080               	/* epilogue start */
 2081               	.LM279:
 2082 073c 0895      		ret
 2083               	.LFE50:
 2085               	.global	I2C_Init
 2087               	I2C_Init:
 2088               	.LFB36:
 2089               	.LM280:
 2090               	/* prologue: function */
 2091               	/* frame size = 0 */
 2092               	.LBB481:
 2093               	.LBB482:
 2094               	.LM281:
 2095 073e 1092 0000 		sts I2C,__zero_reg__
 2096               	.LM282:
 2097 0742 1092 0000 		sts I2C+1,__zero_reg__
 2098               	.LM283:
 2099 0746 1092 0000 		sts I2C+2,__zero_reg__
 2100               	.LM284:
 2101 074a 1092 0000 		sts (I2C+3)+1,__zero_reg__
 2102 074e 1092 0000 		sts I2C+3,__zero_reg__
 2103               	.LBE482:
 2104               	.LBE481:
 2105               	.LM285:
 2106 0752 0E94 0000 		call I2C_GPIO_Init
 2107               	.LM286:
 2108 0756 0E94 0000 		call I2C_Get_Device_Address
 2109 075a 8093 0000 		sts I2C,r24
 2110               	.LM287:
 2111 075e 8F5F      		subi r24,lo8(-(1))
 2112 0760 8093 0000 		sts I2C+1,r24
 2113               	.LM288:
 2114 0764 0E94 0000 		call LPF_Init
 2115               	.LM289:
 2116 0768 80E0      		ldi r24,lo8(0)
 2117 076a 6AE0      		ldi r22,lo8(10)
 2118 076c 0E94 0000 		call LPF_Set_Alpha
 2119               	.LM290:
 2120 0770 81E0      		ldi r24,lo8(1)
 2121 0772 6AE0      		ldi r22,lo8(10)
 2122 0774 0E94 0000 		call LPF_Set_Alpha
 2123               	.LM291:
 2124 0778 82E0      		ldi r24,lo8(2)
 2125 077a 6AE0      		ldi r22,lo8(10)
 2126 077c 0E94 0000 		call LPF_Set_Alpha
 2127               	.LM292:
 2128 0780 83E0      		ldi r24,lo8(3)
 2129 0782 6AE0      		ldi r22,lo8(10)
 2130 0784 0E94 0000 		call LPF_Set_Alpha
 2131               	.LM293:
 2132 0788 84E0      		ldi r24,lo8(4)
 2133 078a 6AE0      		ldi r22,lo8(10)
 2134 078c 0E94 0000 		call LPF_Set_Alpha
 2135               	.LM294:
 2136 0790 85E0      		ldi r24,lo8(5)
 2137 0792 6AE0      		ldi r22,lo8(10)
 2138 0794 0E94 0000 		call LPF_Set_Alpha
 2139               	/* epilogue start */
 2140               	.LM295:
 2141 0798 0895      		ret
 2142               	.LFE36:
 2144               	.global	MPU6050_Init
 2146               	MPU6050_Init:
 2147               	.LFB48:
 2148               	.LM296:
 2149               	/* prologue: function */
 2150               	/* frame size = 0 */
 2151               	.LM297:
 2152 079a 0E94 0000 		call I2C_Init
 2153               	.LM298:
 2154 079e 0E94 0000 		call I2C_Set_Mode_Active
 2155               	.LBB483:
 2156               	.LBB484:
 2157               	.LBB485:
 2158               	.LBB486:
 2159               	.LM299:
 2160 07a2 80E7      		ldi r24,lo8(6000)
 2161 07a4 97E1      		ldi r25,hi8(6000)
 2162               	.LVL140:
 2163               	/* #APP */
 2164               	 ;  105 "c:/winavr-20100110/lib/gcc/../../avr/include/util/delay_basic.h" 1
 2165 07a6 0197      		1: sbiw r24,1
 2166 07a8 01F4      		brne 1b
 2167               	 ;  0 "" 2
 2168               	/* #NOAPP */
 2169               	.LBE486:
 2170               	.LBE485:
 2171               	.LBE484:
 2172               	.LBE483:
 2173               	.LM300:
 2174 07aa 0E94 0000 		call I2C_Read_Acc_X
 2175               	.LVL141:
 2176               	.LM301:
 2177 07ae 0E94 0000 		call I2C_Read_Acc_Y
 2178               	.LM302:
 2179 07b2 0E94 0000 		call I2C_Read_Acc_Z
 2180               	.LM303:
 2181 07b6 0E94 0000 		call I2C_Read_Gyro_X
 2182               	.LM304:
 2183 07ba 0E94 0000 		call I2C_Read_Gyro_Y
 2184               	.LM305:
 2185 07be 0E94 0000 		call I2C_Read_Gyro_Z
 2186               	/* epilogue start */
 2187               	.LM306:
 2188 07c2 0895      		ret
 2189               	.LFE48:
 2191               		.comm I2C,5,1
 2560               	.Letext0:
DEFINED SYMBOLS
                            *ABS*:00000000 i2c.c
C:\Users\FARIDU~1\AppData\Local\Temp/ccZz1lXP.s:2      *ABS*:0000003f __SREG__
C:\Users\FARIDU~1\AppData\Local\Temp/ccZz1lXP.s:3      *ABS*:0000003e __SP_H__
C:\Users\FARIDU~1\AppData\Local\Temp/ccZz1lXP.s:4      *ABS*:0000003d __SP_L__
C:\Users\FARIDU~1\AppData\Local\Temp/ccZz1lXP.s:5      *ABS*:00000034 __CCP__
C:\Users\FARIDU~1\AppData\Local\Temp/ccZz1lXP.s:6      *ABS*:00000000 __tmp_reg__
C:\Users\FARIDU~1\AppData\Local\Temp/ccZz1lXP.s:7      *ABS*:00000001 __zero_reg__
C:\Users\FARIDU~1\AppData\Local\Temp/ccZz1lXP.s:18     .text:00000000 I2C_Struct_Init
                            *COM*:00000005 I2C
C:\Users\FARIDU~1\AppData\Local\Temp/ccZz1lXP.s:39     .text:00000016 I2C_Half_Bit_Delay
C:\Users\FARIDU~1\AppData\Local\Temp/ccZz1lXP.s:68     .text:0000001e I2C_Bit_Delay
C:\Users\FARIDU~1\AppData\Local\Temp/ccZz1lXP.s:97     .text:00000026 I2C_Guard_Delay
C:\Users\FARIDU~1\AppData\Local\Temp/ccZz1lXP.s:126    .text:0000002e I2C_SCL_Set_DD
C:\Users\FARIDU~1\AppData\Local\Temp/ccZz1lXP.s:146    .text:0000003a I2C_SCL_Set_Output_LL
C:\Users\FARIDU~1\AppData\Local\Temp/ccZz1lXP.s:166    .text:00000046 I2C_SCL_Set_Output
C:\Users\FARIDU~1\AppData\Local\Temp/ccZz1lXP.s:206    .text:00000056 I2C_SCL_Get_State
C:\Users\FARIDU~1\AppData\Local\Temp/ccZz1lXP.s:227    .text:00000068 I2C_SDA_Set_DD
C:\Users\FARIDU~1\AppData\Local\Temp/ccZz1lXP.s:247    .text:00000074 I2C_SDA_Set_Output_LL
C:\Users\FARIDU~1\AppData\Local\Temp/ccZz1lXP.s:267    .text:00000080 I2C_SDA_Set_Output
C:\Users\FARIDU~1\AppData\Local\Temp/ccZz1lXP.s:307    .text:00000090 I2C_SDA_Get_State
C:\Users\FARIDU~1\AppData\Local\Temp/ccZz1lXP.s:328    .text:000000a2 I2C_SCL_Reset_State
C:\Users\FARIDU~1\AppData\Local\Temp/ccZz1lXP.s:349    .text:000000ac I2C_SDA_Reset_State
C:\Users\FARIDU~1\AppData\Local\Temp/ccZz1lXP.s:370    .text:000000b6 I2C_GPIO_Init
C:\Users\FARIDU~1\AppData\Local\Temp/ccZz1lXP.s:400    .text:000000c8 I2C_Start
C:\Users\FARIDU~1\AppData\Local\Temp/ccZz1lXP.s:492    .text:000000f8 I2C_Stop
C:\Users\FARIDU~1\AppData\Local\Temp/ccZz1lXP.s:584    .text:00000128 I2C_Data_Send
C:\Users\FARIDU~1\AppData\Local\Temp/ccZz1lXP.s:737    .text:0000017c I2C_Data_Receive
C:\Users\FARIDU~1\AppData\Local\Temp/ccZz1lXP.s:873    .text:000001ca I2C_Set_Ack
C:\Users\FARIDU~1\AppData\Local\Temp/ccZz1lXP.s:940    .text:000001ee I2C_Set_Nack
C:\Users\FARIDU~1\AppData\Local\Temp/ccZz1lXP.s:1007   .text:00000212 I2C_Get_Ack
C:\Users\FARIDU~1\AppData\Local\Temp/ccZz1lXP.s:1109   .text:0000024c I2C_Send_Device_Address
C:\Users\FARIDU~1\AppData\Local\Temp/ccZz1lXP.s:1139   .text:0000026a I2C_Get_Device_Address
C:\Users\FARIDU~1\AppData\Local\Temp/ccZz1lXP.s:1177   .text:00000286 I2C_Read_Register
C:\Users\FARIDU~1\AppData\Local\Temp/ccZz1lXP.s:1269   .text:0000031a I2C_Write_Register
C:\Users\FARIDU~1\AppData\Local\Temp/ccZz1lXP.s:1339   .text:0000038a I2C_Get_Error
C:\Users\FARIDU~1\AppData\Local\Temp/ccZz1lXP.s:1352   .text:00000390 I2C_Get_ErrorAccu
C:\Users\FARIDU~1\AppData\Local\Temp/ccZz1lXP.s:1366   .text:0000039a I2C_Set_Mode_Sleep
C:\Users\FARIDU~1\AppData\Local\Temp/ccZz1lXP.s:1386   .text:000003ae I2C_Set_Mode_Active
C:\Users\FARIDU~1\AppData\Local\Temp/ccZz1lXP.s:1406   .text:000003c2 I2C_Read_Temp
C:\Users\FARIDU~1\AppData\Local\Temp/ccZz1lXP.s:1461   .text:00000400 I2C_Read_Gyro_Z
C:\Users\FARIDU~1\AppData\Local\Temp/ccZz1lXP.s:1525   .text:00000450 I2C_Read_Gyro_Y
C:\Users\FARIDU~1\AppData\Local\Temp/ccZz1lXP.s:1572   .text:0000048c I2C_Read_Gyro_X
C:\Users\FARIDU~1\AppData\Local\Temp/ccZz1lXP.s:1636   .text:000004dc I2C_Read_Acc_Z
C:\Users\FARIDU~1\AppData\Local\Temp/ccZz1lXP.s:1700   .text:0000052c I2C_Read_Acc_Y
C:\Users\FARIDU~1\AppData\Local\Temp/ccZz1lXP.s:1764   .text:0000057c I2C_Read_Roll_Angle
C:\Users\FARIDU~1\AppData\Local\Temp/ccZz1lXP.s:1846   .text:0000060a I2C_Read_Acc_X
C:\Users\FARIDU~1\AppData\Local\Temp/ccZz1lXP.s:1910   .text:0000065a MPU6050_Restart
C:\Users\FARIDU~1\AppData\Local\Temp/ccZz1lXP.s:1955   .text:00000680 MPU6050_Read_Roll_Angle_Safely
C:\Users\FARIDU~1\AppData\Local\Temp/ccZz1lXP.s:1980   .text:00000698 I2C_Read_Pitch_Angle
C:\Users\FARIDU~1\AppData\Local\Temp/ccZz1lXP.s:2062   .text:00000726 MPU6050_Read_Pitch_Angle_Safely
C:\Users\FARIDU~1\AppData\Local\Temp/ccZz1lXP.s:2087   .text:0000073e I2C_Init
C:\Users\FARIDU~1\AppData\Local\Temp/ccZz1lXP.s:2146   .text:0000079a MPU6050_Init

UNDEFINED SYMBOLS
__divmodhi4
LPF_Get_Filtered_Value
__floatsisf
__divsf3
atan
__mulsf3
__fixsfsi
LPF_Init
LPF_Set_Alpha
__do_clear_bss
