   1               		.file	"main.c"
   2               	__SREG__ = 0x3f
   3               	__SP_H__ = 0x3e
   4               	__SP_L__ = 0x3d
   5               	__CCP__  = 0x34
   6               	__tmp_reg__ = 0
   7               	__zero_reg__ = 1
  15               	.Ltext0:
  16               		.data
  17               	.LC0:
  18 0000 4465 6275 		.string	"Debug Started"
  18      6720 5374 
  18      6172 7465 
  18      6400 
  19               		.text
  20               	.global	main
  22               	main:
  23               	.LFB6:
  24               	.LM1:
  25 0000 CF93      		push r28
  26 0002 DF93      		push r29
  27               	/* prologue: function */
  28               	/* frame size = 0 */
  29               	.LM2:
  30 0004 549A      		sbi 42-32,4
  31               	.LM3:
  32 0006 5C98      		cbi 43-32,4
  33               	.LM4:
  34 0008 0E94 0000 		call I2C_Init
  35               	.LM5:
  36 000c 0E94 0000 		call debug_init
  37               	.LM6:
  38 0010 80E0      		ldi r24,lo8(.LC0)
  39 0012 90E0      		ldi r25,hi8(.LC0)
  40 0014 0E94 0000 		call debug_tx_text_nl
  41               	.LM7:
  42 0018 0E94 0000 		call I2C_Set_Mode_Active
  43               	.LBB12:
  44               	.LBB13:
  45               	.LBB14:
  46               	.LBB15:
  47               	.LM8:
  48 001c C0E7      		ldi r28,lo8(6000)
  49 001e D7E1      		ldi r29,hi8(6000)
  50               	.L2:
  51               	.LBE15:
  52               	.LBE14:
  53               	.LBE13:
  54               	.LBE12:
  55               	.LM9:
  56 0020 0E94 0000 		call I2C_Read_Acc_X
  57 0024 AA27      		clr r26
  58 0026 97FD      		sbrc r25,7
  59 0028 A095      		com r26
  60 002a BA2F      		mov r27,r26
  61 002c BC01      		movw r22,r24
  62 002e CD01      		movw r24,r26
  63 0030 0E94 0000 		call debug_tx_number_cm
  64               	.LM10:
  65 0034 0E94 0000 		call I2C_Read_Acc_Y
  66 0038 AA27      		clr r26
  67 003a 97FD      		sbrc r25,7
  68 003c A095      		com r26
  69 003e BA2F      		mov r27,r26
  70 0040 BC01      		movw r22,r24
  71 0042 CD01      		movw r24,r26
  72 0044 0E94 0000 		call debug_tx_number_cm
  73               	.LM11:
  74 0048 0E94 0000 		call I2C_Read_Acc_Z
  75 004c AA27      		clr r26
  76 004e 97FD      		sbrc r25,7
  77 0050 A095      		com r26
  78 0052 BA2F      		mov r27,r26
  79 0054 BC01      		movw r22,r24
  80 0056 CD01      		movw r24,r26
  81 0058 0E94 0000 		call debug_tx_number_cm
  82               	.LM12:
  83 005c 0E94 0000 		call I2C_Read_Gyro_X
  84 0060 AA27      		clr r26
  85 0062 97FD      		sbrc r25,7
  86 0064 A095      		com r26
  87 0066 BA2F      		mov r27,r26
  88 0068 BC01      		movw r22,r24
  89 006a CD01      		movw r24,r26
  90 006c 0E94 0000 		call debug_tx_number_cm
  91               	.LM13:
  92 0070 0E94 0000 		call I2C_Read_Gyro_Y
  93 0074 AA27      		clr r26
  94 0076 97FD      		sbrc r25,7
  95 0078 A095      		com r26
  96 007a BA2F      		mov r27,r26
  97 007c BC01      		movw r22,r24
  98 007e CD01      		movw r24,r26
  99 0080 0E94 0000 		call debug_tx_number_cm
 100               	.LM14:
 101 0084 0E94 0000 		call I2C_Read_Gyro_Z
 102 0088 AA27      		clr r26
 103 008a 97FD      		sbrc r25,7
 104 008c A095      		com r26
 105 008e BA2F      		mov r27,r26
 106 0090 BC01      		movw r22,r24
 107 0092 CD01      		movw r24,r26
 108 0094 0E94 0000 		call debug_tx_number_nl
 109               	.LBB19:
 110               	.LBB18:
 111               	.LBB17:
 112               	.LBB16:
 113               	.LM15:
 114 0098 CE01      		movw r24,r28
 115               	.LVL0:
 116               	/* #APP */
 117               	 ;  105 "c:/winavr-20100110/lib/gcc/../../avr/include/util/delay_basic.h" 1
 118 009a 0197      		1: sbiw r24,1
 119 009c 01F4      		brne 1b
 120               	 ;  0 "" 2
 121               	/* #NOAPP */
 122 009e 00C0      		rjmp .L2
 123               	.LBE16:
 124               	.LBE17:
 125               	.LBE18:
 126               	.LBE19:
 127               	.LFE6:
 153               	.Letext0:
DEFINED SYMBOLS
                            *ABS*:00000000 main.c
C:\Users\FARIDU~1\AppData\Local\Temp/ccUQ7sjb.s:2      *ABS*:0000003f __SREG__
C:\Users\FARIDU~1\AppData\Local\Temp/ccUQ7sjb.s:3      *ABS*:0000003e __SP_H__
C:\Users\FARIDU~1\AppData\Local\Temp/ccUQ7sjb.s:4      *ABS*:0000003d __SP_L__
C:\Users\FARIDU~1\AppData\Local\Temp/ccUQ7sjb.s:5      *ABS*:00000034 __CCP__
C:\Users\FARIDU~1\AppData\Local\Temp/ccUQ7sjb.s:6      *ABS*:00000000 __tmp_reg__
C:\Users\FARIDU~1\AppData\Local\Temp/ccUQ7sjb.s:7      *ABS*:00000001 __zero_reg__
C:\Users\FARIDU~1\AppData\Local\Temp/ccUQ7sjb.s:22     .text:00000000 main

UNDEFINED SYMBOLS
I2C_Init
debug_init
debug_tx_text_nl
I2C_Set_Mode_Active
I2C_Read_Acc_X
debug_tx_number_cm
I2C_Read_Acc_Y
I2C_Read_Acc_Z
I2C_Read_Gyro_X
I2C_Read_Gyro_Y
I2C_Read_Gyro_Z
debug_tx_number_nl
__do_copy_data
